target datalayout = "e-m:e-p270:32:32-p271:32:32-p272:64:64-i64:64-i128:128-f80:128-n8:16:32:64-S128"
target triple = "x86_64-pc-linux-gnu"

%"class.LIEF::PE::LoadConfigurationV11" = type { %"class.LIEF::PE::LoadConfigurationV10", i64 }
%"class.LIEF::PE::LoadConfigurationV10" = type { %"class.LIEF::PE::LoadConfigurationV9", i64, i64, i64 }
%"class.LIEF::PE::LoadConfigurationV9" = type { %"class.LIEF::PE::LoadConfigurationV8", i64, i64 }
%"class.LIEF::PE::LoadConfigurationV8" = type { %"class.LIEF::PE::LoadConfigurationV7", i64 }
%"class.LIEF::PE::LoadConfigurationV7" = type { %"class.LIEF::PE::LoadConfigurationV6.base", i32, i64 }
%"class.LIEF::PE::LoadConfigurationV6.base" = type <{ %"class.LIEF::PE::LoadConfigurationV5", i64, i32 }>
%"class.LIEF::PE::LoadConfigurationV5" = type { %"class.LIEF::PE::LoadConfigurationV4", i64, i64, i32, i16, i16 }
%"class.LIEF::PE::LoadConfigurationV4" = type { %"class.LIEF::PE::LoadConfigurationV3", i64, i64 }
%"class.LIEF::PE::LoadConfigurationV3" = type { %"class.LIEF::PE::LoadConfigurationV2", i64, i64, i64, i64 }
%"class.LIEF::PE::LoadConfigurationV2" = type { %"class.LIEF::PE::LoadConfigurationV1.base", [4 x i8], %"class.LIEF::PE::CodeIntegrity" }
%"class.LIEF::PE::LoadConfigurationV1.base" = type <{ %"class.LIEF::PE::LoadConfigurationV0", i64, i64, i64, i64, i32 }>
%"class.LIEF::PE::LoadConfigurationV0" = type { %"class.LIEF::PE::LoadConfiguration", i64, i64 }
%"class.LIEF::PE::LoadConfiguration" = type { %"class.LIEF::Object", i32, i32, i16, i16, i32, i32, i32, i64, i64, i64, i64, i64, i64, i32, i16, i16, i64, i64 }
%"class.LIEF::Object" = type { ptr }
%"class.LIEF::PE::CodeIntegrity" = type <{ %"class.LIEF::Object", i16, i16, i32, i32, [4 x i8] }>
%"class.fmt::v9::basic_string_view" = type { ptr, i64 }
%"class.fmt::v9::basic_format_string" = type { %"class.fmt::v9::basic_string_view" }
%"class.fmt::v9::basic_format_args" = type { i64, %union.anon.17 }
%union.anon.17 = type { ptr }
%"class.fmt::v9::format_arg_store" = type { %"struct.fmt::v9::detail::arg_data" }
%"struct.fmt::v9::detail::arg_data" = type { [1 x %"class.fmt::v9::detail::value"] }
%"class.fmt::v9::detail::value" = type { %union.anon.18 }
%union.anon.18 = type { i128 }
%"class.std::__cxx11::basic_string" = type { %"struct.std::__cxx11::basic_string<char>::_Alloc_hider", i64, %union.anon.16 }
%"struct.std::__cxx11::basic_string<char>::_Alloc_hider" = type { ptr }
%union.anon.16 = type { i64, [8 x i8] }
%"struct.fmt::v9::detail::arg_mapper" = type { i8 }

@.str = private unnamed_addr constant [23 x i8] c"LoadConfigurationV11:\0A\00", align 1
@.str.1 = private unnamed_addr constant [51 x i8] c"  Cast Guard OS Determined Failure Mode: 0x{:08x}\0A\00", align 1

; Function Attrs: mustprogress uwtable
define linkonce_odr hidden { i64, i64 } @_ZN3fmt2v916make_format_argsINS0_20basic_format_contextINS0_8appenderEcEEJRmEEENS0_16format_arg_storeIT_JDpNSt9remove_cvINSt16remove_referenceIT0_E4typeEE4typeEEEEDpOSA_(ptr noundef nonnull align 8 dereferenceable(8) %0) #3 comdat {
  %2 = alloca ptr, align 8
  %3 = alloca i64, align 8
  %4 = alloca ptr, align 8
  %5 = alloca i64, align 8
  %6 = alloca %"class.fmt::v9::detail::value", align 16
  %7 = alloca ptr, align 8
  %8 = alloca ptr, align 8
  %9 = alloca i64, align 8
  %10 = alloca %"struct.fmt::v9::detail::arg_mapper", align 1
  %11 = alloca i8, align 1
  %12 = alloca i8, align 1
  %13 = alloca i8, align 1
  %14 = alloca i8, align 1
  %15 = alloca ptr, align 8
  %16 = alloca ptr, align 8
  %17 = alloca i32, align 4
  %18 = alloca i32, align 4
  %19 = alloca ptr, align 8
  %20 = alloca ptr, align 8
  %21 = alloca ptr, align 8
  %22 = alloca %"class.fmt::v9::detail::value", align 16
  %23 = alloca ptr, align 8
  %24 = alloca ptr, align 8
  %25 = alloca ptr, align 8
  %26 = alloca %"class.fmt::v9::detail::value", align 16
  %27 = alloca %"class.fmt::v9::format_arg_store", align 16
  %28 = alloca ptr, align 8
  store ptr %0, ptr %28, align 8
  %29 = load ptr, ptr %28, align 8
  store ptr %27, ptr %24, align 8
  store ptr %29, ptr %25, align 8
  %30 = load ptr, ptr %24, align 8
  %31 = load ptr, ptr %25, align 8
  store ptr %31, ptr %23, align 8
  %32 = load ptr, ptr %23, align 8
  store ptr %32, ptr %7, align 8
  %33 = load ptr, ptr %7, align 8
  %34 = load i64, ptr %33, align 8
  store ptr %10, ptr %4, align 8
  store i64 %34, ptr %5, align 8
  %35 = load i64, ptr %5, align 8
  store i64 %35, ptr %9, align 8
  store ptr %9, ptr %8, align 8
  store i8 1, ptr %11, align 1
  store i8 1, ptr %12, align 1
  store i8 1, ptr %13, align 1
  store i8 1, ptr %14, align 1
  %36 = load ptr, ptr %8, align 8
  %37 = load i64, ptr %36, align 8
  store ptr %6, ptr %2, align 8
  store i64 %37, ptr %3, align 8
  %38 = load ptr, ptr %2, align 8
  %39 = load i64, ptr %3, align 8
  store i64 %39, ptr %38, align 16
  %40 = load { i64, i64 }, ptr %6, align 16
  %41 = extractvalue { i64, i64 } %40, 0
  store i64 %41, ptr %22, align 16
  %42 = getelementptr inbounds { i64, i64 }, ptr %22, i32 0, i32 1
  %43 = extractvalue { i64, i64 } %40, 1
  store i64 %43, ptr %42, align 8
  %44 = load { i64, i64 }, ptr %22, align 16
  %45 = extractvalue { i64, i64 } %44, 0
  store i64 %45, ptr %26, align 16
  %46 = getelementptr inbounds { i64, i64 }, ptr %26, i32 0, i32 1
  %47 = extractvalue { i64, i64 } %44, 1
  store i64 %47, ptr %46, align 8
  store ptr %30, ptr %20, align 8
  store ptr %26, ptr %21, align 8
  %48 = load ptr, ptr %20, align 8
  %49 = load ptr, ptr %21, align 8
  call void @llvm.memcpy.p0.p0.i64(ptr align 16 %48, ptr align 16 %49, i64 16, i1 false)
  store ptr %30, ptr %15, align 8
  %50 = load ptr, ptr %25, align 8
  store ptr null, ptr %16, align 8
  store i32 0, ptr %17, align 4
  store i32 0, ptr %18, align 4
  store ptr %50, ptr %19, align 8
  %51 = getelementptr inbounds %"class.fmt::v9::format_arg_store", ptr %27, i32 0, i32 0
  %52 = getelementptr inbounds %"struct.fmt::v9::detail::arg_data", ptr %51, i32 0, i32 0
  %53 = load { i64, i64 }, ptr %52, align 16
  ret { i64, i64 } %53
}

; Function Attrs: mustprogress nounwind uwtable
define linkonce_odr hidden noundef i64 @_ZNK4LIEF2PE20LoadConfigurationV1137cast_guard_os_determined_failure_modeEv(ptr noundef nonnull align 8 dereferenceable(336) %0) #1 comdat align 2 {
  %2 = alloca ptr, align 8
  store ptr %0, ptr %2, align 8
  %3 = load ptr, ptr %2, align 8
  %4 = getelementptr inbounds %"class.LIEF::PE::LoadConfigurationV11", ptr %3, i32 0, i32 1
  %5 = load i64, ptr %4, align 8
  ret i64 %5
}

; Function Attrs: mustprogress nounwind uwtable
define linkonce_odr hidden noundef i64 @_ZNSt11char_traitsIcE6lengthEPKc(ptr noundef %0) #1 comdat align 2 {
  %2 = alloca ptr, align 8
  store ptr %0, ptr %2, align 8
  %3 = load ptr, ptr %2, align 8
  %4 = call i64 @strlen(ptr noundef %3) #15
  ret i64 %4
}

; Function Attrs: mustprogress uwtable
define noundef nonnull align 8 dereferenceable(8) ptr @_ZNK4LIEF2PE20LoadConfigurationV115printERSo(ptr noundef nonnull align 8 dereferenceable(336) %0, ptr noundef nonnull align 8 dereferenceable(8) %1) unnamed_addr #3 align 2 personality ptr @__gxx_personality_v0 {
  %3 = alloca ptr, align 8
  %4 = alloca ptr, align 8
  %5 = alloca i64, align 8
  %6 = alloca ptr, align 8
  %7 = alloca ptr, align 8
  %8 = alloca ptr, align 8
  %9 = alloca ptr, align 8
  %10 = alloca ptr, align 8
  %11 = alloca ptr, align 8
  %12 = alloca %"class.fmt::v9::basic_string_view", align 8
  %13 = alloca ptr, align 8
  %14 = alloca ptr, align 8
  %15 = alloca ptr, align 8
  %16 = alloca ptr, align 8
  %17 = alloca %"class.fmt::v9::basic_format_string", align 8
  %18 = alloca ptr, align 8
  %19 = alloca %"class.fmt::v9::basic_string_view", align 8
  %20 = alloca %"class.fmt::v9::basic_format_args", align 8
  %21 = alloca %"class.fmt::v9::format_arg_store", align 16
  %22 = alloca ptr, align 8
  %23 = alloca ptr, align 8
  %24 = alloca %"class.std::__cxx11::basic_string", align 8
  %25 = alloca %"class.fmt::v9::basic_format_string", align 8
  %26 = alloca i64, align 8
  %27 = alloca ptr, align 8
  %28 = alloca i32, align 4
  store ptr %0, ptr %22, align 8
  store ptr %1, ptr %23, align 8
  %29 = load ptr, ptr %22, align 8
  %30 = load ptr, ptr %23, align 8
  %31 = call noundef nonnull align 8 dereferenceable(8) ptr @_ZNK4LIEF2PE20LoadConfigurationV105printERSo(ptr noundef nonnull align 8 dereferenceable(328) %29, ptr noundef nonnull align 8 dereferenceable(8) %30)
  %32 = load ptr, ptr %23, align 8
  %33 = call noundef nonnull align 8 dereferenceable(8) ptr @_ZStlsISt11char_traitsIcEERSt13basic_ostreamIcT_ES5_PKc(ptr noundef nonnull align 8 dereferenceable(8) %32, ptr noundef @.str)
  store ptr %25, ptr %14, align 8
  store ptr @.str.1, ptr %15, align 8
  %34 = load ptr, ptr %14, align 8
  %35 = load ptr, ptr %15, align 8
  store ptr %34, ptr %8, align 8
  store ptr %35, ptr %9, align 8
  %36 = load ptr, ptr %8, align 8
  %37 = load ptr, ptr %9, align 8
  store ptr %37, ptr %36, align 8
  %38 = getelementptr inbounds %"class.fmt::v9::basic_string_view", ptr %36, i32 0, i32 1
  %39 = load ptr, ptr %9, align 8
  %40 = call noundef i64 @_ZNSt11char_traitsIcE6lengthEPKc(ptr noundef %39)
  store i64 %40, ptr %38, align 8
  %41 = load ptr, ptr %15, align 8
  store ptr %41, ptr %3, align 8
  %42 = call noundef i64 @_ZNK4LIEF2PE20LoadConfigurationV1137cast_guard_os_determined_failure_modeEv(ptr noundef nonnull align 8 dereferenceable(336) %29)
  store i64 %42, ptr %26, align 8
  %43 = getelementptr inbounds { ptr, i64 }, ptr %25, i32 0, i32 0
  %44 = load ptr, ptr %43, align 8
  %45 = getelementptr inbounds { ptr, i64 }, ptr %25, i32 0, i32 1
  %46 = load i64, ptr %45, align 8
  call void @llvm.experimental.noalias.scope.decl(metadata !4)
  store ptr %24, ptr %16, align 8, !noalias !4
  store ptr %44, ptr %17, align 8, !noalias !4
  %47 = getelementptr inbounds { ptr, i64 }, ptr %17, i32 0, i32 1
  store i64 %46, ptr %47, align 8, !noalias !4
  store ptr %26, ptr %18, align 8, !noalias !4
  store ptr %17, ptr %13, align 8
  %48 = load ptr, ptr %13, align 8
  call void @llvm.memcpy.p0.p0.i64(ptr align 8 %12, ptr align 8 %48, i64 16, i1 false)
  %49 = load { ptr, i64 }, ptr %12, align 8
  %50 = extractvalue { ptr, i64 } %49, 0
  store ptr %50, ptr %19, align 8, !noalias !4
  %51 = getelementptr inbounds { ptr, i64 }, ptr %19, i32 0, i32 1
  %52 = extractvalue { ptr, i64 } %49, 1
  store i64 %52, ptr %51, align 8, !noalias !4
  %53 = load ptr, ptr %18, align 8, !noalias !4
  %54 = call { i64, i64 } @_ZN3fmt2v916make_format_argsINS0_20basic_format_contextINS0_8appenderEcEEJRmEEENS0_16format_arg_storeIT_JDpNSt9remove_cvINSt16remove_referenceIT0_E4typeEE4typeEEEEDpOSA_(ptr noundef nonnull align 8 dereferenceable(8) %53)
  %55 = extractvalue { i64, i64 } %54, 0
  store i64 %55, ptr %21, align 16, !noalias !4
  %56 = getelementptr inbounds { i64, i64 }, ptr %21, i32 0, i32 1
  %57 = extractvalue { i64, i64 } %54, 1
  store i64 %57, ptr %56, align 8, !noalias !4
  store ptr %20, ptr %10, align 8
  store ptr %21, ptr %11, align 8
  %58 = load ptr, ptr %10, align 8
  %59 = load ptr, ptr %11, align 8
  store ptr %59, ptr %7, align 8
  %60 = load ptr, ptr %7, align 8
  store ptr %58, ptr %4, align 8
  store i64 4, ptr %5, align 8
  store ptr %60, ptr %6, align 8
  %61 = load ptr, ptr %4, align 8
  %62 = load i64, ptr %5, align 8
  store i64 %62, ptr %61, align 8
  %63 = getelementptr inbounds %"class.fmt::v9::basic_format_args", ptr %61, i32 0, i32 1
  %64 = load ptr, ptr %6, align 8
  store ptr %64, ptr %63, align 8
  %65 = load ptr, ptr %19, align 8, !noalias !4
  %66 = getelementptr inbounds { ptr, i64 }, ptr %19, i32 0, i32 1
  %67 = load i64, ptr %66, align 8, !noalias !4
  %68 = load i64, ptr %20, align 8, !noalias !4
  %69 = getelementptr inbounds { i64, ptr }, ptr %20, i32 0, i32 1
  %70 = load ptr, ptr %69, align 8, !noalias !4
  call void @_ZN3fmt2v97vformatB5cxx11ENS0_17basic_string_viewIcEENS0_17basic_format_argsINS0_20basic_format_contextINS0_8appenderEcEEEE(ptr dead_on_unwind writable sret(%"class.std::__cxx11::basic_string") align 8 %24, ptr %65, i64 %67, i64 %68, ptr %70)
  %71 = invoke noundef nonnull align 8 dereferenceable(8) ptr @_ZStlsIcSt11char_traitsIcESaIcEERSt13basic_ostreamIT_T0_ES7_RKNSt7__cxx1112basic_stringIS4_S5_T1_EE(ptr noundef nonnull align 8 dereferenceable(8) %33, ptr noundef nonnull align 8 dereferenceable(32) %24)
          to label %72 unwind label %74

72:                                               ; preds = %2
  call void @_ZNSt7__cxx1112basic_stringIcSt11char_traitsIcESaIcEED1Ev(ptr noundef nonnull align 8 dereferenceable(32) %24) #15
  %73 = load ptr, ptr %23, align 8
  ret ptr %73

74:                                               ; preds = %2
  %75 = landingpad { ptr, i32 }
          cleanup
  %76 = extractvalue { ptr, i32 } %75, 0
  store ptr %76, ptr %27, align 8
  %77 = extractvalue { ptr, i32 } %75, 1
  store i32 %77, ptr %28, align 4
  call void @_ZNSt7__cxx1112basic_stringIcSt11char_traitsIcESaIcEED1Ev(ptr noundef nonnull align 8 dereferenceable(32) %24) #15
  br label %78

78:                                               ; preds = %74
  %79 = load ptr, ptr %27, align 8
  %80 = load i32, ptr %28, align 4
  %81 = insertvalue { ptr, i32 } poison, ptr %79, 0
  %82 = insertvalue { ptr, i32 } %81, i32 %80, 1
  resume { ptr, i32 } %82
}